; Function Attrs: mustprogress nofree norecurse nounwind willreturn memory(read, inaccessiblemem: none) uwtable
define internal range(i32 0, 101) i32 @gxf_probe(ptr noundef readonly captures(none) %0) #0 {
  %2 = getelementptr inbounds nuw i8, ptr %0, i64 8
  %3 = load ptr, ptr %2, align 8, !tbaa !4
  %bcmp = tail call i32 @bcmp(ptr noundef nonnull dereferenceable(6) %3, ptr noundef nonnull dereferenceable(6) @gxf_probe.startcode, i64 6)
  %.not = icmp eq i32 %bcmp, 0
  br i1 %.not, label %4, label %6

4:                                                ; preds = %1
  %5 = getelementptr inbounds nuw i8, ptr %3, i64 10
  %bcmp2 = tail call i32 @bcmp(ptr noundef nonnull dereferenceable(6) %5, ptr noundef nonnull dereferenceable(6) @gxf_probe.endcode, i64 6)
  %.not3 = icmp eq i32 %bcmp2, 0
  br i1 %.not3, label %7, label %6

6:                                                ; preds = %4, %1
  br label %7

7:                                                ; preds = %4, %6
  %.0 = phi i32 [ 0, %6 ], [ 100, %4 ]
  ret i32 %.0
}